target datalayout = "e-m:e-p270:32:32-p271:32:32-p272:64:64-i64:64-i128:128-f80:128-n8:16:32:64-S128"
target triple = "x86_64-pc-linux-gnu"

%struct._object = type { %union.anon, ptr }
%union.anon = type { i64 }
%union.sock_addr = type { %struct.sockaddr_storage }
%struct.sockaddr_storage = type { i16, [118 x i8], i64 }
%struct.PySocketSockObject = type { %struct._object, i32, i32, i32, i32, ptr, i64, ptr }
%union.__SOCKADDR_ARG = type { ptr }

; Function Attrs: inlinehint nounwind uwtable
define internal i32 @get_sock_fd(ptr noundef %0) #3 {
  %2 = alloca ptr, align 8
  store ptr %0, ptr %2, align 8, !tbaa !8
  %3 = load ptr, ptr %2, align 8, !tbaa !8
  %4 = getelementptr inbounds nuw %struct.PySocketSockObject, ptr %3, i32 0, i32 1
  %5 = load i32, ptr %4, align 8, !tbaa !113
  ret i32 %5
}

; Function Attrs: nounwind uwtable
define internal ptr @sock_getpeername(ptr noundef %0, ptr noundef %1) #0 {
  %3 = alloca ptr, align 8
  %4 = alloca ptr, align 8
  %5 = alloca ptr, align 8
  %6 = alloca ptr, align 8
  %7 = alloca %union.sock_addr, align 8
  %8 = alloca i32, align 4
  %9 = alloca i32, align 4
  %10 = alloca i32, align 4
  %11 = alloca ptr, align 8
  %12 = alloca %union.__SOCKADDR_ARG, align 8
  store ptr %0, ptr %4, align 8, !tbaa !3
  store ptr %1, ptr %5, align 8, !tbaa !3
  call void @llvm.lifetime.start.p0(i64 8, ptr %6) #10
  %13 = load ptr, ptr %4, align 8, !tbaa !3
  store ptr %13, ptr %6, align 8, !tbaa !8
  call void @llvm.lifetime.start.p0(i64 128, ptr %7) #10
  call void @llvm.lifetime.start.p0(i64 4, ptr %8) #10
  call void @llvm.lifetime.start.p0(i64 4, ptr %9) #10
  %14 = load ptr, ptr %6, align 8, !tbaa !8
  %15 = call i32 @getsockaddrlen(ptr noundef %14, ptr noundef %9)
  %16 = icmp ne i32 %15, 0
  br i1 %16, label %18, label %17

17:                                               ; preds = %2
  store ptr null, ptr %3, align 8
  store i32 1, ptr %10, align 4
  br label %44

18:                                               ; preds = %2
  %19 = load i32, ptr %9, align 4, !tbaa !15
  %20 = zext i32 %19 to i64
  call void @llvm.memset.p0.i64(ptr align 8 %7, i8 0, i64 %20, i1 false)
  call void @llvm.lifetime.start.p0(i64 8, ptr %11) #10
  %21 = call ptr @PyEval_SaveThread()
  store ptr %21, ptr %11, align 8, !tbaa !26
  %22 = load ptr, ptr %6, align 8, !tbaa !8
  %23 = call i32 @get_sock_fd(ptr noundef %22)
  store ptr %7, ptr %12, align 8, !tbaa !35
  %24 = getelementptr inbounds nuw %union.__SOCKADDR_ARG, ptr %12, i32 0, i32 0
  %25 = load ptr, ptr %24, align 8
  %26 = call i32 @getpeername(i32 noundef %23, ptr %25, ptr noundef %9) #10
  store i32 %26, ptr %8, align 4, !tbaa !15
  %27 = load ptr, ptr %11, align 8, !tbaa !26
  call void @PyEval_RestoreThread(ptr noundef %27)
  call void @llvm.lifetime.end.p0(i64 8, ptr %11) #10
  %28 = load i32, ptr %8, align 4, !tbaa !15
  %29 = icmp slt i32 %28, 0
  br i1 %29, label %30, label %35

30:                                               ; preds = %18
  %31 = load ptr, ptr %6, align 8, !tbaa !8
  %32 = getelementptr inbounds nuw %struct.PySocketSockObject, ptr %31, i32 0, i32 5
  %33 = load ptr, ptr %32, align 8, !tbaa !110
  %34 = call ptr %33()
  store ptr %34, ptr %3, align 8
  store i32 1, ptr %10, align 4
  br label %44

35:                                               ; preds = %18
  %36 = load ptr, ptr %6, align 8, !tbaa !8
  %37 = call i32 @get_sock_fd(ptr noundef %36)
  %38 = load i32, ptr %9, align 4, !tbaa !15
  %39 = zext i32 %38 to i64
  %40 = load ptr, ptr %6, align 8, !tbaa !8
  %41 = getelementptr inbounds nuw %struct.PySocketSockObject, ptr %40, i32 0, i32 4
  %42 = load i32, ptr %41, align 4, !tbaa !109
  %43 = call ptr @makesockaddr(i32 noundef %37, ptr noundef %7, i64 noundef %39, i32 noundef %42)
  store ptr %43, ptr %3, align 8
  store i32 1, ptr %10, align 4
  br label %44

44:                                               ; preds = %35, %30, %17
  call void @llvm.lifetime.end.p0(i64 4, ptr %9) #10
  call void @llvm.lifetime.end.p0(i64 4, ptr %8) #10
  call void @llvm.lifetime.end.p0(i64 128, ptr %7) #10
  call void @llvm.lifetime.end.p0(i64 8, ptr %6) #10
  %45 = load ptr, ptr %3, align 8
  ret ptr %45
}