; Function Attrs: nounwind uwtable
define internal ptr @sock_getpeername(ptr noundef readonly captures(none) %0, ptr readnone captures(none) %1) #0 {
  %3 = alloca %union.sock_addr, align 8
  %4 = alloca i32, align 4
  call void @llvm.lifetime.start.p0(i64 128, ptr nonnull %3) #13
  call void @llvm.lifetime.start.p0(i64 4, ptr nonnull %4) #13
  %5 = call fastcc i32 @getsockaddrlen(ptr noundef %0, ptr noundef %4)
  %.not = icmp eq i32 %5, 0
  br i1 %.not, label %23, label %6

6:                                                ; preds = %2
  %7 = load i32, ptr %4, align 4, !tbaa !35
  %8 = zext i32 %7 to i64
  call void @llvm.memset.p0.i64(ptr nonnull align 8 %3, i8 0, i64 %8, i1 false)
  %9 = tail call ptr @PyEval_SaveThread() #13
  %10 = getelementptr i8, ptr %0, i64 16
  %.val8 = load i32, ptr %10, align 8, !tbaa !83
  %11 = call i32 @getpeername(i32 noundef %.val8, ptr nonnull %3, ptr noundef nonnull %4) #13
  call void @PyEval_RestoreThread(ptr noundef %9) #13
  %12 = icmp slt i32 %11, 0
  br i1 %12, label %13, label %17

13:                                               ; preds = %6
  %14 = getelementptr inbounds nuw i8, ptr %0, i64 32
  %15 = load ptr, ptr %14, align 8, !tbaa !89
  %16 = call ptr %15() #13
  br label %23

17:                                               ; preds = %6
  %.val = load i32, ptr %10, align 8, !tbaa !83
  %18 = load i32, ptr %4, align 4, !tbaa !35
  %19 = zext i32 %18 to i64
  %20 = getelementptr inbounds nuw i8, ptr %0, i64 28
  %21 = load i32, ptr %20, align 4, !tbaa !88
  %22 = call fastcc ptr @makesockaddr(i32 noundef %.val, ptr noundef nonnull %3, i64 noundef %19, i32 noundef %21)
  br label %23

23:                                               ; preds = %2, %17, %13
  %.0 = phi ptr [ %16, %13 ], [ %22, %17 ], [ null, %2 ]
  call void @llvm.lifetime.end.p0(i64 4, ptr nonnull %4) #13
  call void @llvm.lifetime.end.p0(i64 128, ptr nonnull %3) #13
  ret ptr %.0
}